target datalayout = "e-m:e-p270:32:32-p271:32:32-p272:64:64-i64:64-i128:128-f80:128-n8:16:32:64-S128"
target triple = "x86_64-unknown-linux-gnu"

%"class.hermes::vm::CallResult" = type { i16, [2 x i8] }
%"union.hermes::vm::PropOpFlags" = type { i32 }
%"class.hermes::vm::TwineChar16" = type { %"union.hermes::vm::TwineChar16::Node", i32, %"union.hermes::vm::TwineChar16::Node", i32, i64, i64 }
%"union.hermes::vm::TwineChar16::Node" = type { ptr }
%"class.llvh::StringRef" = type { ptr, i64 }

; Function Attrs: mustprogress nounwind uwtable
define linkonce_odr hidden noundef ptr @_ZNK4llvh9StringRef5beginEv(ptr noundef nonnull align 8 dereferenceable(16) %this) #0 comdat align 2 {
entry:
  %this.addr = alloca ptr, align 8
  store ptr %this, ptr %this.addr, align 8
  %this1 = load ptr, ptr %this.addr, align 8
  %Data = getelementptr inbounds %"class.llvh::StringRef", ptr %this1, i32 0, i32 0
  %0 = load ptr, ptr %Data, align 8
  ret ptr %0
}

; Function Attrs: mustprogress nounwind uwtable
define linkonce_odr hidden void @_ZN6hermes2vm11TwineChar16C2EN4llvh9StringRefE(ptr noundef nonnull align 8 dereferenceable(48) %this, ptr %str.coerce0, i64 %str.coerce1) unnamed_addr #0 comdat align 2 {
entry:
  %this.addr.i6 = alloca ptr, align 8
  %this.addr.i = alloca ptr, align 8
  %str = alloca %"class.llvh::StringRef", align 8
  %this.addr = alloca ptr, align 8
  %0 = getelementptr inbounds { ptr, i64 }, ptr %str, i32 0, i32 0
  store ptr %str.coerce0, ptr %0, align 8
  %1 = getelementptr inbounds { ptr, i64 }, ptr %str, i32 0, i32 1
  store i64 %str.coerce1, ptr %1, align 8
  store ptr %this, ptr %this.addr, align 8
  %this1 = load ptr, ptr %this.addr, align 8
  %rightKind_ = getelementptr inbounds %"class.hermes::vm::TwineChar16", ptr %this1, i32 0, i32 3
  store i32 1, ptr %rightKind_, align 8
  %leftSize_ = getelementptr inbounds %"class.hermes::vm::TwineChar16", ptr %this1, i32 0, i32 4
  store ptr %str, ptr %this.addr.i6, align 8
  %this1.i7 = load ptr, ptr %this.addr.i6, align 8
  %Length.i8 = getelementptr inbounds %"class.llvh::StringRef", ptr %this1.i7, i32 0, i32 1
  %2 = load i64, ptr %Length.i8, align 8
  store i64 %2, ptr %leftSize_, align 8
  %rightSize_ = getelementptr inbounds %"class.hermes::vm::TwineChar16", ptr %this1, i32 0, i32 5
  store i64 0, ptr %rightSize_, align 8
  store ptr %str, ptr %this.addr.i, align 8
  %this1.i = load ptr, ptr %this.addr.i, align 8
  %Length.i = getelementptr inbounds %"class.llvh::StringRef", ptr %this1.i, i32 0, i32 1
  %3 = load i64, ptr %Length.i, align 8
  %cmp = icmp eq i64 %3, 0
  br i1 %cmp, label %if.then, label %if.else

if.then:                                          ; preds = %entry
  %leftKind_ = getelementptr inbounds %"class.hermes::vm::TwineChar16", ptr %this1, i32 0, i32 1
  store i32 1, ptr %leftKind_, align 8
  br label %if.end

if.else:                                          ; preds = %entry
  %call3 = call noundef ptr @_ZNK4llvh9StringRef5beginEv(ptr noundef nonnull align 8 dereferenceable(16) %str)
  %leftChild_4 = getelementptr inbounds %"class.hermes::vm::TwineChar16", ptr %this1, i32 0, i32 0
  store ptr %call3, ptr %leftChild_4, align 8
  %leftKind_5 = getelementptr inbounds %"class.hermes::vm::TwineChar16", ptr %this1, i32 0, i32 1
  store i32 3, ptr %leftKind_5, align 8
  br label %if.end

if.end:                                           ; preds = %if.else, %if.then
  ret void
}

; Function Attrs: mustprogress nounwind uwtable
define linkonce_odr hidden noundef zeroext i1 @_ZNK6hermes2vm10CallResultIbLNS0_6detail20CallResultSpecializeE1EE8getValueEv(ptr noundef nonnull align 4 dereferenceable(2) %this) #0 comdat align 2 {
entry:
  %this.addr = alloca ptr, align 8
  store ptr %this, ptr %this.addr, align 8
  %this1 = load ptr, ptr %this.addr, align 8
  %bf.load = load i16, ptr %this1, align 4
  %bf.lshr = lshr i16 %bf.load, 8
  %bf.clear = and i16 %bf.lshr, 1
  %bf.cast = trunc i16 %bf.clear to i1
  ret i1 %bf.cast
}

; Function Attrs: mustprogress nounwind uwtable
define linkonce_odr hidden noundef i32 @_ZNK6hermes2vm10CallResultIbLNS0_6detail20CallResultSpecializeE1EE9getStatusEv(ptr noundef nonnull align 4 dereferenceable(2) %this) #0 comdat align 2 {
entry:
  %this.addr = alloca ptr, align 8
  store ptr %this, ptr %this.addr, align 8
  %this1 = load ptr, ptr %this.addr, align 8
  %bf.load = load i16, ptr %this1, align 4
  %bf.shl = shl i16 %bf.load, 8
  %bf.ashr = ashr i16 %bf.shl, 8
  %bf.cast = sext i16 %bf.ashr to i32
  ret i32 %bf.cast
}

; Function Attrs: mustprogress nounwind uwtable
define linkonce_odr hidden void @_ZN6hermes2vm11TwineChar16C2EPKc(ptr noundef nonnull align 8 dereferenceable(48) %this, ptr noundef %str) unnamed_addr #0 comdat align 2 {
entry:
  %this.addr.i = alloca ptr, align 8
  %Str.addr.i = alloca ptr, align 8
  %this.addr = alloca ptr, align 8
  %str.addr = alloca ptr, align 8
  %agg.tmp = alloca %"class.llvh::StringRef", align 8
  store ptr %this, ptr %this.addr, align 8
  store ptr %str, ptr %str.addr, align 8
  %this1 = load ptr, ptr %this.addr, align 8
  %0 = load ptr, ptr %str.addr, align 8
  store ptr %agg.tmp, ptr %this.addr.i, align 8
  store ptr %0, ptr %Str.addr.i, align 8
  %this1.i = load ptr, ptr %this.addr.i, align 8
  %1 = load ptr, ptr %Str.addr.i, align 8
  store ptr %1, ptr %this1.i, align 8
  %Length.i = getelementptr inbounds %"class.llvh::StringRef", ptr %this1.i, i32 0, i32 1
  %2 = load ptr, ptr %Str.addr.i, align 8
  %tobool.i = icmp ne ptr %2, null
  br i1 %tobool.i, label %cond.true.i, label %cond.false.i

cond.true.i:                                      ; preds = %entry
  %3 = load ptr, ptr %Str.addr.i, align 8
  %call.i = call i64 @strlen(ptr noundef %3) #12
  br label %_ZN4llvh9StringRefC2EPKc.exit

cond.false.i:                                     ; preds = %entry
  br label %_ZN4llvh9StringRefC2EPKc.exit

_ZN4llvh9StringRefC2EPKc.exit:                    ; preds = %cond.false.i, %cond.true.i
  %cond.i = phi i64 [ %call.i, %cond.true.i ], [ 0, %cond.false.i ]
  store i64 %cond.i, ptr %Length.i, align 8
  %4 = getelementptr inbounds { ptr, i64 }, ptr %agg.tmp, i32 0, i32 0
  %5 = load ptr, ptr %4, align 8
  %6 = getelementptr inbounds { ptr, i64 }, ptr %agg.tmp, i32 0, i32 1
  %7 = load i64, ptr %6, align 8
  call void @_ZN6hermes2vm11TwineChar16C2EN4llvh9StringRefE(ptr noundef nonnull align 8 dereferenceable(48) %this1, ptr %5, i64 %7)
  ret void
}

; Function Attrs: mustprogress nounwind uwtable
define linkonce_odr hidden noundef zeroext i1 @_ZNK6hermes2vm11PropOpFlags15getThrowOnErrorEv(ptr noundef nonnull align 4 dereferenceable(4) %this) #0 comdat align 2 {
entry:
  %this.addr = alloca ptr, align 8
  store ptr %this, ptr %this.addr, align 8
  %this1 = load ptr, ptr %this.addr, align 8
  %bf.load = load i8, ptr %this1, align 4
  %bf.clear = and i8 %bf.load, 1
  %bf.cast = trunc i8 %bf.clear to i1
  ret i1 %bf.cast
}

; Function Attrs: mustprogress nounwind uwtable
define linkonce_odr hidden noundef zeroext i1 @_ZNK6hermes2vm10CallResultIbLNS0_6detail20CallResultSpecializeE1EEdeEv(ptr noundef nonnull align 4 dereferenceable(2) %this) #0 comdat align 2 {
entry:
  %this.addr = alloca ptr, align 8
  store ptr %this, ptr %this.addr, align 8
  %this1 = load ptr, ptr %this.addr, align 8
  %call = call noundef zeroext i1 @_ZNK6hermes2vm10CallResultIbLNS0_6detail20CallResultSpecializeE1EE8getValueEv(ptr noundef nonnull align 4 dereferenceable(2) %this1)
  ret i1 %call
}

; Function Attrs: mustprogress nounwind uwtable
define linkonce_odr hidden void @_ZN6hermes2vm10CallResultIbLNS0_6detail20CallResultSpecializeE1EEC2ENS0_15ExecutionStatusE(ptr noundef nonnull align 4 dereferenceable(2) %this, i32 noundef %status) unnamed_addr #0 comdat align 2 {
entry:
  %this.addr = alloca ptr, align 8
  %status.addr = alloca i32, align 4
  store ptr %this, ptr %this.addr, align 8
  store i32 %status, ptr %status.addr, align 4
  %this1 = load ptr, ptr %this.addr, align 8
  %0 = load i32, ptr %status.addr, align 4
  %1 = trunc i32 %0 to i16
  %bf.load = load i16, ptr %this1, align 4
  %bf.value = and i16 %1, 255
  %bf.clear = and i16 %bf.load, -256
  %bf.set = or i16 %bf.clear, %bf.value
  store i16 %bf.set, ptr %this1, align 4
  ret void
}

; Function Attrs: mustprogress nounwind uwtable
define linkonce_odr hidden noundef zeroext i1 @_ZN6hermes2vmeqIbEEbRKNS0_10CallResultIT_Xsr6detail23GetCallResultSpecializeIS3_EE5valueEEENS0_15ExecutionStatusE(ptr noundef nonnull align 4 dereferenceable(2) %lhs, i32 noundef %rhs) #0 comdat {
entry:
  %lhs.addr = alloca ptr, align 8
  %rhs.addr = alloca i32, align 4
  store ptr %lhs, ptr %lhs.addr, align 8
  store i32 %rhs, ptr %rhs.addr, align 4
  %0 = load ptr, ptr %lhs.addr, align 8
  %call = call noundef i32 @_ZNK6hermes2vm10CallResultIbLNS0_6detail20CallResultSpecializeE1EE9getStatusEv(ptr noundef nonnull align 4 dereferenceable(2) %0)
  %1 = load i32, ptr %rhs.addr, align 4
  %cmp = icmp eq i32 %call, %1
  ret i1 %cmp
}

; Function Attrs: mustprogress nounwind uwtable
define internal i32 @_ZN6hermes2vm12_GLOBAL__N_112proxyOpFlagsERNS0_7RuntimeENS0_11PropOpFlagsEPKcNS0_10CallResultIbLNS0_6detail20CallResultSpecializeE1EEE(ptr noundef nonnull align 8 dereferenceable(9832) %runtime, i32 %opFlags.coerce, ptr noundef %msg, i32 %res.coerce) #0 {
entry:
  %retval = alloca %"class.hermes::vm::CallResult", align 4
  %opFlags = alloca %"union.hermes::vm::PropOpFlags", align 4
  %res = alloca %"class.hermes::vm::CallResult", align 4
  %runtime.addr = alloca ptr, align 8
  %msg.addr = alloca ptr, align 8
  %ref.tmp = alloca %"class.hermes::vm::TwineChar16", align 8
  %coerce.dive = getelementptr inbounds %"union.hermes::vm::PropOpFlags", ptr %opFlags, i32 0, i32 0
  store i32 %opFlags.coerce, ptr %coerce.dive, align 4
  store i32 %res.coerce, ptr %res, align 4
  store ptr %runtime, ptr %runtime.addr, align 8
  store ptr %msg, ptr %msg.addr, align 8
  %call = call noundef zeroext i1 @_ZN6hermes2vmeqIbEEbRKNS0_10CallResultIT_Xsr6detail23GetCallResultSpecializeIS3_EE5valueEEENS0_15ExecutionStatusE(ptr noundef nonnull align 4 dereferenceable(2) %res, i32 noundef 0)
  br i1 %call, label %if.then, label %if.end

if.then:                                          ; preds = %entry
  call void @_ZN6hermes2vm10CallResultIbLNS0_6detail20CallResultSpecializeE1EEC2ENS0_15ExecutionStatusE(ptr noundef nonnull align 4 dereferenceable(2) %retval, i32 noundef 0)
  br label %return

if.end:                                           ; preds = %entry
  %call1 = call noundef zeroext i1 @_ZNK6hermes2vm10CallResultIbLNS0_6detail20CallResultSpecializeE1EEdeEv(ptr noundef nonnull align 4 dereferenceable(2) %res)
  br i1 %call1, label %if.end5, label %land.lhs.true

land.lhs.true:                                    ; preds = %if.end
  %call2 = call noundef zeroext i1 @_ZNK6hermes2vm11PropOpFlags15getThrowOnErrorEv(ptr noundef nonnull align 4 dereferenceable(4) %opFlags)
  br i1 %call2, label %if.then3, label %if.end5

if.then3:                                         ; preds = %land.lhs.true
  %0 = load ptr, ptr %runtime.addr, align 8
  %1 = load ptr, ptr %msg.addr, align 8
  call void @_ZN6hermes2vm11TwineChar16C2EPKc(ptr noundef nonnull align 8 dereferenceable(48) %ref.tmp, ptr noundef %1)
  %call4 = call noundef i32 @_ZN6hermes2vm7Runtime14raiseTypeErrorERKNS0_11TwineChar16E(ptr noundef nonnull align 8 dereferenceable(9832) %0, ptr noundef nonnull align 8 dereferenceable(48) %ref.tmp)
  call void @_ZN6hermes2vm10CallResultIbLNS0_6detail20CallResultSpecializeE1EEC2ENS0_15ExecutionStatusE(ptr noundef nonnull align 4 dereferenceable(2) %retval, i32 noundef %call4)
  br label %return

if.end5:                                          ; preds = %land.lhs.true, %if.end
  call void @llvm.memcpy.p0.p0.i64(ptr align 4 %retval, ptr align 4 %res, i64 4, i1 false)
  br label %return

return:                                           ; preds = %if.end5, %if.then3, %if.then
  %2 = load i32, ptr %retval, align 4
  ret i32 %2
}