; Function Attrs: mustprogress nounwind uwtable
define internal fastcc i32 @_ZN6hermes2vm12_GLOBAL__N_112proxyOpFlagsERNS0_7RuntimeENS0_11PropOpFlagsEPKcNS0_10CallResultIbLNS0_6detail20CallResultSpecializeE1EEE(ptr noundef nonnull align 8 dereferenceable(9832) %runtime, i32 %opFlags.coerce, ptr noundef %msg, i32 %res.coerce) unnamed_addr #1 {
entry:
  %ref.tmp = alloca %"class.hermes::vm::TwineChar16", align 8
  %bf.cast.i.i6.mask = and i32 %res.coerce, 255
  %cmp.i = icmp eq i32 %bf.cast.i.i6.mask, 0
  br i1 %cmp.i, label %return, label %if.end

if.end:                                           ; preds = %entry
  %0 = and i32 %res.coerce, 256
  %bf.cast.i.i2.not = icmp eq i32 %0, 0
  br i1 %bf.cast.i.i2.not, label %land.lhs.true, label %if.end5

land.lhs.true:                                    ; preds = %if.end
  %bf.cast.i = trunc i32 %opFlags.coerce to i1
  br i1 %bf.cast.i, label %if.then3, label %if.end5

if.then3:                                         ; preds = %land.lhs.true
  %tobool.i.not.i = icmp eq ptr %msg, null
  br i1 %tobool.i.not.i, label %entry.split.i, label %cond.true.i.split.i

entry.split.i:                                    ; preds = %if.then3
  %rightKind_.i.i = getelementptr inbounds nuw i8, ptr %ref.tmp, i64 24
  store i32 1, ptr %rightKind_.i.i, align 8
  %leftSize_.i.i = getelementptr inbounds nuw i8, ptr %ref.tmp, i64 32
  %1 = getelementptr inbounds nuw i8, ptr %ref.tmp, i64 8
  call void @llvm.memset.p0.i64(ptr noundef nonnull align 8 dereferenceable(16) %leftSize_.i.i, i8 0, i64 16, i1 false)
  store i32 1, ptr %1, align 8
  br label %_ZN6hermes2vm11TwineChar16C2EPKc.exit

cond.true.i.split.i:                              ; preds = %if.then3
  %call.i.i = tail call i64 @strlen(ptr noundef nonnull dereferenceable(1) %msg) #19
  %rightKind_.i3.i = getelementptr inbounds nuw i8, ptr %ref.tmp, i64 24
  store i32 1, ptr %rightKind_.i3.i, align 8
  %leftSize_.i4.i = getelementptr inbounds nuw i8, ptr %ref.tmp, i64 32
  store i64 %call.i.i, ptr %leftSize_.i4.i, align 8
  %rightSize_.i5.i = getelementptr inbounds nuw i8, ptr %ref.tmp, i64 40
  store i64 0, ptr %rightSize_.i5.i, align 8
  %cmp.i.i = icmp eq i64 %call.i.i, 0
  br i1 %cmp.i.i, label %_ZN6hermes2vm11TwineChar16C2EN4llvh9StringRefE.exit.i, label %if.else.i.i

if.else.i.i:                                      ; preds = %cond.true.i.split.i
  store ptr %msg, ptr %ref.tmp, align 8
  br label %_ZN6hermes2vm11TwineChar16C2EN4llvh9StringRefE.exit.i

_ZN6hermes2vm11TwineChar16C2EN4llvh9StringRefE.exit.i: ; preds = %if.else.i.i, %cond.true.i.split.i
  %.sink.i.i = phi i32 [ 3, %if.else.i.i ], [ 1, %cond.true.i.split.i ]
  %2 = getelementptr inbounds nuw i8, ptr %ref.tmp, i64 8
  store i32 %.sink.i.i, ptr %2, align 8
  br label %_ZN6hermes2vm11TwineChar16C2EPKc.exit

_ZN6hermes2vm11TwineChar16C2EPKc.exit:            ; preds = %entry.split.i, %_ZN6hermes2vm11TwineChar16C2EN4llvh9StringRefE.exit.i
  %call4 = call noundef i32 @_ZN6hermes2vm7Runtime14raiseTypeErrorERKNS0_11TwineChar16E(ptr noundef nonnull align 8 dereferenceable(9832) %runtime, ptr noundef nonnull align 8 dereferenceable(48) %ref.tmp) #17
  %bf.value.i = and i32 %call4, 255
  br label %return

if.end5:                                          ; preds = %land.lhs.true, %if.end
  %retval.sroa.6.0.extract.shift = and i32 %res.coerce, -65536
  %3 = and i32 %res.coerce, 65535
  br label %return

return:                                           ; preds = %entry, %if.end5, %_ZN6hermes2vm11TwineChar16C2EPKc.exit
  %retval.sroa.0.0 = phi i32 [ %3, %if.end5 ], [ %bf.value.i, %_ZN6hermes2vm11TwineChar16C2EPKc.exit ], [ 0, %entry ]
  %retval.sroa.6.0 = phi i32 [ %retval.sroa.6.0.extract.shift, %if.end5 ], [ 0, %_ZN6hermes2vm11TwineChar16C2EPKc.exit ], [ 0, %entry ]
  %retval.sroa.0.0.insert.insert = or disjoint i32 %retval.sroa.6.0, %retval.sroa.0.0
  ret i32 %retval.sroa.0.0.insert.insert
}